Certificate:
    Data:
        Version: 3 (0x2)
        Serial Number: 1193051 (0x12345b)
    Signature Algorithm: sha256WithRSAEncryption
        Issuer: C=US, ST=CA, L=San Francisco, O=Ultimate Trust, Inc., CN=ultimatetrust.com
        Validity
            Not Before: Apr 30 21:08:45 2024 GMT
            Not After : Jul 29 21:08:45 2024 GMT
        Subject: C=US, ST=CA, L=San Francisco, O=Tunneler, Inc., CN=www.tunneler.com
        Subject Public Key Info:
            Public Key Algorithm: rsaEncryption
                Public-Key: (2048 bit)
                Modulus:
                    00:c8:d6:5d:72:2c:d2:8b:d9:7d:d4:12:38:bf:a0:
                    ad:3a:f1:5a:ca:03:4d:8a:fd:89:e6:71:b5:e9:85:
                    3b:ec:da:94:5b:42:ae:5d:0a:c3:db:9d:1c:1c:12:
                    65:32:bb:8c:54:12:4b:15:67:9b:e3:73:5a:08:7e:
                    bb:12:f9:4c:d0:b6:d0:c0:ed:2d:74:da:3b:f0:9e:
                    67:db:aa:8a:90:9e:6a:29:a1:5c:05:9b:26:a1:5d:
                    42:22:77:c5:1c:d7:43:f9:3f:bf:1c:6d:14:9a:3e:
                    60:49:5d:30:fc:66:df:e4:6b:39:e5:90:6e:5b:d7:
                    fb:b9:77:31:43:7b:89:44:99:b9:ca:24:e3:ac:aa:
                    43:c4:cb:5a:66:07:c4:e1:5f:26:be:b4:1d:5e:57:
                    3b:ec:d2:b6:a0:31:18:42:36:c5:6a:0f:39:e6:08:
                    33:31:3a:1e:7e:eb:33:09:fc:3b:0d:6b:da:90:c9:
                    79:49:11:89:53:33:73:2b:bb:9e:7e:c3:39:1a:d8:
                    0a:25:23:39:a3:60:e8:3d:45:7c:95:d6:75:a8:08:
                    bb:51:4b:b6:1d:77:7e:72:2d:0f:5e:99:2f:f4:b1:
                    36:52:57:4b:da:32:db:73:52:23:3c:52:78:5c:31:
                    5c:f1:3f:ac:b5:27:31:f0:38:6c:6e:1f:2d:5b:cf:
                    6a:df
                Exponent: 65537 (0x10001)
        X509v3 extensions:
            X509v3 Basic Constraints: 
                CA:FALSE
            X509v3 Key Usage: 
                Digital Signature
            X509v3 Extended Key Usage: 
                TLS Web Server Authentication
            Netscape Comment: 
                OpenSSL Generated Certificate
            X509v3 Subject Key Identifier: 
                F6:68:2A:47:C4:80:30:F3:0F:E9:0E:B7:FC:FB:14:47:1A:5E:44:39
            X509v3 Authority Key Identifier: 
                keyid:EE:4D:55:AC:74:43:6E:EA:47:2A:2E:76:B3:B2:62:D7:78:B0:2A:F4

    Signature Algorithm: sha256WithRSAEncryption
         3c:20:1c:99:b9:2d:1b:0a:9e:3b:62:d7:f4:8a:d2:3b:02:53:
         f2:80:fb:90:0c:3b:27:7a:5d:f8:e8:ec:91:73:c1:6d:de:ea:
         b1:df:83:e7:4a:96:fb:25:a0:09:02:ff:c7:e3:cf:fa:c3:0b:
         3a:27:f9:7f:d3:63:98:3b:88:9e:49:91:e7:e4:56:4f:13:67:
         37:77:37:d7:30:4a:d0:d0:65:3e:00:68:50:d1:c5:d9:b6:ff:
         1a:3b:46:6e:95:62:2d:c8:9a:05:82:5f:7e:e9:be:50:1b:ff:
         65:25:4f:fe:94:bf:e8:59:2f:1f:6a:cf:23:c9:22:b3:01:a0:
         f7:65:69:da:22:61:6f:ef:68:79:f2:45:69:c8:54:53:3c:cb:
         cd:4e:d9:4a:7c:86:99:7b:ce:62:d0:cd:20:15:7a:c4:6d:a4:
         dd:8d:f7:a4:36:52:97:6d:6f:4c:e1:db:8e:b1:39:fb:11:cf:
         59:b0:87:52:c2:d7:f4:78:8d:b6:bb:4c:96:02:70:7f:8a:1f:
         5a:7b:e6:61:d6:fa:23:89:6c:90:b9:1c:f0:a6:98:39:73:3b:
         b0:6f:85:b0:d7:53:fe:e1:93:a8:ee:19:bc:a2:db:60:57:7c:
         19:c5:17:9b:e8:3c:ff:07:44:85:6b:b0:78:b7:a9:94:b5:fe:
         a7:71:97:d4:7e:54:32:1a:31:79:e3:29:06:dd:6e:39:80:b8:
         cc:9a:f5:ef:25:10:72:98:ab:cd:4c:6d:47:71:cc:32:c8:6a:
         74:92:49:3e:01:fb:48:a8:84:83:73:86:b6:08:9a:52:64:84:
         38:02:b1:74:d6:2a:6a:f6:7a:25:44:c6:94:6d:21:91:06:73:
         e4:5e:dd:18:d5:12:40:f6:46:e0:49:9c:57:d7:6d:ac:a5:bf:
         15:9d:9a:27:10:48:1d:da:ef:a6:a1:7c:a5:01:91:d9:b0:0b:
         ff:13:aa:20:a5:57:40:25:e0:d5:b2:27:cf:b4:c1:ad:b9:fa:
         b2:05:79:db:82:2a:5d:62:28:47:a4:da:21:1a:8b:03:e7:b4:
         00:5e:63:6c:7d:42:bd:71:6c:41:8d:6c:1b:0d:06:2e:38:5b:
         9e:02:93:61:d6:8c:93:f6:4d:12:25:61:6a:19:d1:57:90:da:
         38:e9:05:d5:34:1f:4e:f2:c1:d4:cf:a0:66:df:17:f2:05:75:
         28:6c:ef:a8:da:23:15:47:a6:bf:97:11:3e:33:d0:f8:fb:a9:
         02:7a:7f:51:87:54:f8:e8:d6:02:21:01:46:e6:00:8f:22:80:
         43:2f:a4:16:27:4e:d7:23:32:e8:31:3c:4f:2b:3b:3b:d8:a8:
         0b:5b:b3:f9:14:e2:6b:65
-----BEGIN CERTIFICATE-----
MIIE7zCCAtegAwIBAgIDEjRbMA0GCSqGSIb3DQEBCwUAMG0xCzAJBgNVBAYTAlVT
MQswCQYDVQQIDAJDQTEWMBQGA1UEBwwNU2FuIEZyYW5jaXNjbzEdMBsGA1UECgwU
VWx0aW1hdGUgVHJ1c3QsIEluYy4xGjAYBgNVBAMMEXVsdGltYXRldHJ1c3QuY29t
MB4XDTI0MDQzMDIxMDg0NVoXDTI0MDcyOTIxMDg0NVowZjELMAkGA1UEBhMCVVMx
CzAJBgNVBAgMAkNBMRYwFAYDVQQHDA1TYW4gRnJhbmNpc2NvMRcwFQYDVQQKDA5U
dW5uZWxlciwgSW5jLjEZMBcGA1UEAwwQd3d3LnR1bm5lbGVyLmNvbTCCASIwDQYJ
KoZIhvcNAQEBBQADggEPADCCAQoCggEBAMjWXXIs0ovZfdQSOL+grTrxWsoDTYr9
ieZxtemFO+zalFtCrl0Kw9udHBwSZTK7jFQSSxVnm+NzWgh+uxL5TNC20MDtLXTa
O/CeZ9uqipCeaimhXAWbJqFdQiJ3xRzXQ/k/vxxtFJo+YEldMPxm3+RrOeWQblvX
+7l3MUN7iUSZucok46yqQ8TLWmYHxOFfJr60HV5XO+zStqAxGEI2xWoPOeYIMzE6
Hn7rMwn8Ow1r2pDJeUkRiVMzcyu7nn7DORrYCiUjOaNg6D1FfJXWdagIu1FLth13
fnItD16ZL/SxNlJXS9oy23NSIzxSeFwxXPE/rLUnMfA4bG4fLVvPat8CAwEAAaOB
njCBmzAJBgNVHRMEAjAAMAsGA1UdDwQEAwIHgDATBgNVHSUEDDAKBggrBgEFBQcD
ATAsBglghkgBhvhCAQ0EHxYdT3BlblNTTCBHZW5lcmF0ZWQgQ2VydGlmaWNhdGUw
HQYDVR0OBBYEFPZoKkfEgDDzD+kOt/z7FEcaXkQ5MB8GA1UdIwQYMBaAFO5NVax0
Q27qRyoudrOyYtd4sCr0MA0GCSqGSIb3DQEBCwUAA4ICAQA8IByZuS0bCp47Ytf0
itI7AlPygPuQDDsnel346OyRc8Ft3uqx34PnSpb7JaAJAv/H48/6wws6J/l/02OY
O4ieSZHn5FZPE2c3dzfXMErQ0GU+AGhQ0cXZtv8aO0ZulWItyJoFgl9+6b5QG/9l
JU/+lL/oWS8fas8jySKzAaD3ZWnaImFv72h58kVpyFRTPMvNTtlKfIaZe85i0M0g
FXrEbaTdjfekNlKXbW9M4duOsTn7Ec9ZsIdSwtf0eI22u0yWAnB/ih9ae+Zh1voj
iWyQuRzwppg5czuwb4Ww11P+4ZOo7hm8ottgV3wZxReb6Dz/B0SFa7B4t6mUtf6n
cZfUflQyGjF54ykG3W45gLjMmvXvJRBymKvNTG1HccwyyGp0kkk+AftIqISDc4a2
CJpSZIQ4ArF01ipq9nolRMaUbSGRBnPkXt0Y1RJA9kbgSZxX122spb8VnZonEEgd
2u+moXylAZHZsAv/E6ogpVdAJeDVsifPtMGtufqyBXnbgipdYihHpNohGosD57QA
XmNsfUK9cWxBjWwbDQYuOFueApNh1oyT9k0SJWFqGdFXkNo46QXVNB9O8sHUz6Bm
3xfyBXUobO+o2iMVR6a/lxE+M9D4+6kCen9Rh1T46NYCIQFG5gCPIoBDL6QWJ07X
IzLoMTxPKzs72KgLW7P5FOJrZQ==
-----END CERTIFICATE-----
